Certificate:
    Data:
        Version: 1 (0x0)
        Serial Number: 4 (0x4)
        Signature Algorithm: sha1WithRSAEncryption
        Issuer: O=Sainsmograf.com, OU=Tech/emailAddress=arif@sainsmograf.com, L=Bandung, ST=West Java, C=ID, CN=Arif Widi Nugroho
        Validity
            Not Before: Apr  7 15:33:11 2012 GMT
            Not After : Apr  7 15:33:11 2014 GMT
        Subject: C=ID, ST=West Java, O=Sainsmograf.com, OU=Environmental Modelling, CN=aqm.sainsmograf.com
        Subject Public Key Info:
            Public Key Algorithm: rsaEncryption
                Public-Key: (2048 bit)
                Modulus:
                    00:cd:fb:de:e4:2a:95:44:aa:ed:6a:96:fb:b7:5b:
                    31:49:8d:b9:cd:77:91:23:ec:71:c0:b5:90:ec:7b:
                    4b:22:d3:f6:b7:e5:74:a0:87:83:0a:02:a5:79:d4:
                    f0:c4:88:2e:03:73:0d:58:0e:9a:58:9c:30:da:92:
                    92:5e:36:4f:0a:44:e2:ba:85:27:f3:89:4e:ae:4b:
                    fb:05:3d:d0:0c:c3:fd:72:14:ce:4f:28:c6:fb:e1:
                    45:fc:66:3e:94:a2:fd:a0:56:77:8b:02:01:f5:10:
                    f5:46:b6:91:7c:25:b4:45:a5:93:8f:c5:00:93:72:
                    3c:c5:52:c2:7c:e0:91:b7:88:b3:2c:36:e1:3a:ca:
                    91:93:bb:d0:de:5f:09:d3:85:98:40:69:89:3a:05:
                    29:29:5e:e8:07:2c:1e:ca:91:69:3e:3f:8b:bc:1a:
                    0b:b9:7e:78:52:81:7c:a4:06:78:77:81:55:58:7c:
                    56:28:3d:0f:45:4e:bc:c8:7b:71:64:ad:d6:fa:57:
                    36:e3:d5:24:1a:f1:34:0f:66:42:40:9b:36:12:56:
                    d1:b9:47:24:3f:ed:b3:a1:f1:08:1d:f7:90:3c:5a:
                    65:ce:19:6e:5d:a7:26:ef:55:a7:1d:5e:1c:84:18:
                    55:a3:bf:af:67:d3:61:07:cc:07:f8:fa:b7:98:56:
                    47:4f
                Exponent: 65537 (0x10001)
    Signature Algorithm: sha1WithRSAEncryption
        b5:66:f5:f4:03:6d:e9:fe:e1:98:bc:c0:9c:1f:dd:19:4d:e9:
        16:08:d6:c9:8d:be:31:07:ea:99:97:83:bd:22:9e:da:b5:54:
        e2:27:6f:08:63:fe:40:57:f6:78:7f:03:ed:e0:4f:b0:c9:3d:
        fd:13:c5:cc:c0:0f:11:58:27:bf:7c:76:64:69:6a:a7:ee:65:
        f7:85:e5:07:d1:a8:df:e2:9f:97:b4:8f:3a:ce:d6:36:41:67:
        e5:44:f6:cf:38:05:96:28:38:35:f6:d8:35:cf:41:88:fe:8e:
        36:8a:b7:80:60:18:47:16:58:bf:ba:7a:4e:f5:72:c7:b4:14:
        0c:14:c4:ef:6a:0c:b6:43:dd:35:ce:8f:74:24:b8:6b:46:96:
        18:d3:04:4e:40:50:e5:39:c4:78:ca:bf:6e:c6:b9:4d:fc:ea:
        9f:50:88:9b:23:8d:3f:9b:4e:25:83:0e:fd:3a:71:ca:cd:1d:
        50:c8:50:96:65:33:67:79:3e:4d:5d:f9:8a:95:10:0c:45:5b:
        32:fc:2f:f4:70:04:0c:52:26:8b:cd:25:0a:01:b7:f1:7a:0f:
        24:d5:aa:ce:c7:77:b3:34:76:4f:f9:bb:1a:bf:e9:04:be:a9:
        20:4c:1a:cc:29:00:0f:ea:9f:dd:d2:52:2b:e7:ef:b3:63:0a:
        6c:ec:79:d7
-----BEGIN CERTIFICATE-----
MIIDjTCCAnUCAQQwDQYJKoZIhvcNAQEFBQAwgZ0xGDAWBgNVBAoTD1NhaW5zbW9n
cmFmLmNvbTENMAsGA1UECxMEVGVjaDEjMCEGCSqGSIb3DQEJARYUYXJpZkBzYWlu
c21vZ3JhZi5jb20xEDAOBgNVBAcTB0JhbmR1bmcxEjAQBgNVBAgTCVdlc3QgSmF2
YTELMAkGA1UEBhMCSUQxGjAYBgNVBAMTEUFyaWYgV2lkaSBOdWdyb2hvMB4XDTEy
MDQwNzE1MzMxMVoXDTE0MDQwNzE1MzMxMVowezELMAkGA1UEBhMCSUQxEjAQBgNV
BAgTCVdlc3QgSmF2YTEYMBYGA1UEChMPU2FpbnNtb2dyYWYuY29tMSAwHgYDVQQL
ExdFbnZpcm9ubWVudGFsIE1vZGVsbGluZzEcMBoGA1UEAxMTYXFtLnNhaW5zbW9n
cmFmLmNvbTCCASIwDQYJKoZIhvcNAQEBBQADggEPADCCAQoCggEBAM373uQqlUSq
7WqW+7dbMUmNuc13kSPsccC1kOx7SyLT9rfldKCHgwoCpXnU8MSILgNzDVgOmlic
MNqSkl42TwpE4rqFJ/OJTq5L+wU90AzD/XIUzk8oxvvhRfxmPpSi/aBWd4sCAfUQ
9Ua2kXwltEWlk4/FAJNyPMVSwnzgkbeIsyw24TrKkZO70N5fCdOFmEBpiToFKSle
6AcsHsqRaT4/i7waC7l+eFKBfKQGeHeBVVh8Vig9D0VOvMh7cWSt1vpXNuPVJBrx
NA9mQkCbNhJW0blHJD/ts6HxCB33kDxaZc4Zbl2nJu9Vpx1eHIQYVaO/r2fTYQfM
B/j6t5hWR08CAwEAATANBgkqhkiG9w0BAQUFAAOCAQEAtWb19ANt6f7hmLzAnB/d
GU3pFgjWyY2+MQfqmZeDvSKe2rVU4idvCGP+QFf2eH8D7eBPsMk9/RPFzMAPEVgn
v3x2ZGlqp+5l94XlB9Go3+Kfl7SPOs7WNkFn5UT2zzgFlig4NfbYNc9BiP6ONoq3
gGAYRxZYv7p6TvVyx7QUDBTE72oMtkPdNc6PdCS4a0aWGNMETkBQ5TnEeMq/bsa5
Tfzqn1CImyONP5tOJYMO/Tpxys0dUMhQlmUzZ3k+TV35ipUQDEVbMvwv9HAEDFIm
i80lCgG38XoPJNWqzsd3szR2T/m7Gr/pBL6pIEwazCkAD+qf3dJSK+fvs2MKbOx5
1w==
-----END CERTIFICATE-----
