Certificate:
    Data:
        Version: 1 (0x0)
        Serial Number: 6 (0x6)
        Signature Algorithm: sha1WithRSAEncryption
        Issuer: O=Sainsmograf.com, L=Bandung, ST=West Java, C=ID, CN=Arif Widi Nugroho
        Validity
            Not Before: May  9 07:30:30 2012 GMT
            Not After : May  9 07:30:30 2014 GMT
        Subject: C=ID, ST=West Java, O=Sainsmograf.com, CN=aqm.sainsmograf.com
        Subject Public Key Info:
            Public Key Algorithm: rsaEncryption
                Public-Key: (2048 bit)
                Modulus:
                    00:dd:99:ae:2e:93:ee:81:d2:20:7b:d4:0b:bb:f4:
                    c0:00:ac:dd:44:ec:52:c6:de:57:66:7e:0a:cd:f2:
                    d9:66:c2:5b:09:81:fa:16:41:4d:c8:6a:54:42:74:
                    6d:9b:31:6c:59:1e:65:c8:65:53:e6:82:21:1b:42:
                    95:09:fe:62:6e:63:72:38:9b:93:41:ab:fb:17:dd:
                    df:31:35:4d:82:3f:0b:4b:9a:61:7e:5f:92:74:ad:
                    44:71:9c:e3:c1:79:81:71:91:8e:b9:05:48:d9:b0:
                    57:8f:2e:94:14:88:45:19:44:b4:50:99:df:41:8b:
                    d1:aa:d8:ad:3c:2a:42:f0:0d:d4:dc:ef:b8:b5:16:
                    c8:02:92:37:36:f6:16:d1:e2:49:c1:52:fd:cd:0c:
                    1f:e6:aa:12:87:28:6e:21:56:da:f6:d0:f9:2d:33:
                    5d:bc:aa:d5:2a:e4:1e:88:e8:b4:e0:45:ef:1c:9d:
                    1b:9a:3f:57:5c:64:3e:e9:28:db:d0:f9:8d:5a:f3:
                    86:63:c9:da:36:ec:da:b1:b3:05:29:fc:61:30:42:
                    69:f2:69:60:87:b1:66:97:4e:d0:be:66:69:84:a6:
                    2c:ce:bc:9f:87:8e:88:3b:8d:35:ab:56:66:ba:61:
                    64:39:46:4a:0f:ed:b8:c3:6e:db:03:e3:37:14:c4:
                    f6:6b
                Exponent: 65537 (0x10001)
    Signature Algorithm: sha1WithRSAEncryption
        77:44:5b:de:13:59:90:3a:6b:32:56:e3:04:c8:a4:e0:d3:4c:
        62:45:ab:db:d3:a8:c2:f9:e9:13:92:92:c8:84:e0:e3:36:96:
        04:51:2e:4b:f6:98:61:1d:5d:35:a3:bd:34:a0:0d:d9:87:bb:
        ff:37:7a:53:be:9b:da:bc:cd:72:20:e4:9f:e3:a7:07:09:27:
        9d:ae:d9:f2:89:49:37:b2:7d:37:5c:ce:72:d1:7c:88:72:5a:
        73:09:b0:95:28:02:aa:76:17:e6:11:d3:61:ca:00:06:cd:a4:
        a8:92:48:dd:76:90:32:71:45:1b:b9:e9:5f:9f:42:21:2b:4b:
        ac:cf:07:40:05:a9:35:d6:54:8b:51:a2:26:06:79:e1:bc:9c:
        63:ea:72:20:f7:0b:a1:0e:c0:22:d2:2b:68:c1:37:87:24:c0:
        5d:ee:d1:bf:55:88:5f:79:19:09:25:ae:9b:fc:31:79:c5:c9:
        45:32:6e:ad:06:c5:d0:83:a6:0a:9e:92:63:1d:74:ba:ef:c0:
        86:d2:26:b4:aa:28:dc:d7:47:c4:0b:40:a2:3c:b8:4f:92:2f:
        45:15:76:71:f2:72:f3:0d:f9:20:2c:d5:2d:b0:5e:34:6d:1d:
        fe:6b:b7:fa:4a:f6:72:cc:88:a8:2d:8d:4f:79:ac:8a:bd:9e:
        e9:38:69:83
-----BEGIN CERTIFICATE-----
MIIDNjCCAh4CAQYwDQYJKoZIhvcNAQEFBQAwaTEYMBYGA1UEChMPU2FpbnNtb2dy
YWYuY29tMRAwDgYDVQQHEwdCYW5kdW5nMRIwEAYDVQQIEwlXZXN0IEphdmExCzAJ
BgNVBAYTAklEMRowGAYDVQQDExFBcmlmIFdpZGkgTnVncm9obzAeFw0xMjA1MDkw
NzMwMzBaFw0xNDA1MDkwNzMwMzBaMFkxCzAJBgNVBAYTAklEMRIwEAYDVQQIEwlX
ZXN0IEphdmExGDAWBgNVBAoTD1NhaW5zbW9ncmFmLmNvbTEcMBoGA1UEAxMTYXFt
LnNhaW5zbW9ncmFmLmNvbTCCASIwDQYJKoZIhvcNAQEBBQADggEPADCCAQoCggEB
AN2Zri6T7oHSIHvUC7v0wACs3UTsUsbeV2Z+Cs3y2WbCWwmB+hZBTchqVEJ0bZsx
bFkeZchlU+aCIRtClQn+Ym5jcjibk0Gr+xfd3zE1TYI/C0uaYX5fknStRHGc48F5
gXGRjrkFSNmwV48ulBSIRRlEtFCZ30GL0arYrTwqQvAN1NzvuLUWyAKSNzb2FtHi
ScFS/c0MH+aqEocobiFW2vbQ+S0zXbyq1SrkHojotOBF7xydG5o/V1xkPuko29D5
jVrzhmPJ2jbs2rGzBSn8YTBCafJpYIexZpdO0L5maYSmLM68n4eOiDuNNatWZrph
ZDlGSg/tuMNu2wPjNxTE9msCAwEAATANBgkqhkiG9w0BAQUFAAOCAQEAd0Rb3hNZ
kDprMlbjBMik4NNMYkWr29OowvnpE5KSyITg4zaWBFEuS/aYYR1dNaO9NKAN2Ye7
/zd6U76b2rzNciDkn+OnBwknna7Z8olJN7J9N1zOctF8iHJacwmwlSgCqnYX5hHT
YcoABs2kqJJI3XaQMnFFG7npX59CIStLrM8HQAWpNdZUi1GiJgZ54bycY+pyIPcL
oQ7AItIraME3hyTAXe7Rv1WIX3kZCSWum/wxecXJRTJurQbF0IOmCp6SYx10uu/A
htImtKoo3NdHxAtAojy4T5IvRRV2cfJy8w35ICzVLbBeNG0d/mu3+kr2csyIqC2N
T3msir2e6Thpgw==
-----END CERTIFICATE-----
